; Function Attrs: nounwind uwtable
define range(i32 0, 2) i32 @ossl_quic_channel_has_pending(ptr noundef readonly captures(none) %0) local_unnamed_addr #0 {
  %2 = load ptr, ptr %0, align 8, !tbaa !3
  %3 = getelementptr inbounds nuw i8, ptr %2, i64 64
  %4 = load ptr, ptr %3, align 8, !tbaa !112
  %5 = tail call i32 @ossl_quic_demux_has_pending(ptr noundef %4) #15
  %.not = icmp eq i32 %5, 0
  br i1 %.not, label %6, label %12

6:                                                ; preds = %1
  %7 = getelementptr inbounds nuw i8, ptr %0, i64 1064
  %8 = load ptr, ptr %7, align 8, !tbaa !116
  %9 = tail call i32 @ossl_qrx_processed_read_pending(ptr noundef %8) #15
  %10 = icmp ne i32 %9, 0
  %11 = zext i1 %10 to i32
  br label %12

12:                                               ; preds = %6, %1
  %13 = phi i32 [ 1, %1 ], [ %11, %6 ]
  ret i32 %13
}